target datalayout = "e-m:e-p270:32:32-p271:32:32-p272:64:64-i64:64-i128:128-f80:128-n8:16:32:64-S128"
target triple = "x86_64-pc-linux-gnu"

%"class.std::__cxx11::basic_string" = type { %"struct.std::__cxx11::basic_string<char>::_Alloc_hider", i64, %union.anon }
%"struct.std::__cxx11::basic_string<char>::_Alloc_hider" = type { ptr }
%union.anon = type { i64, [8 x i8] }
%"class.cm::static_string_view" = type { %"class.std::basic_string_view" }
%"class.std::basic_string_view" = type { i64, ptr }
%"struct.std::__detail::_Hash_node_base" = type { ptr }
%"struct.std::__detail::_Prime_rehash_policy" = type { float, i64 }
%"class.std::vector" = type { %"struct.std::_Vector_base" }
%"struct.std::_Vector_base" = type { %"struct.std::_Vector_base<std::__cxx11::basic_string<char>, std::allocator<std::__cxx11::basic_string<char>>>::_Vector_impl" }
%"struct.std::_Vector_base<std::__cxx11::basic_string<char>, std::allocator<std::__cxx11::basic_string<char>>>::_Vector_impl" = type { %"struct.std::_Vector_base<std::__cxx11::basic_string<char>, std::allocator<std::__cxx11::basic_string<char>>>::_Vector_impl_data" }
%"struct.std::_Vector_base<std::__cxx11::basic_string<char>, std::allocator<std::__cxx11::basic_string<char>>>::_Vector_impl_data" = type { ptr, ptr, ptr }
%class.cmTarget = type { %"class.std::unique_ptr" }
%"class.std::unique_ptr" = type { %"struct.std::__uniq_ptr_data" }
%"struct.std::__uniq_ptr_data" = type { %"class.std::__uniq_ptr_impl" }
%"class.std::__uniq_ptr_impl" = type { %"class.std::tuple" }
%"class.std::tuple" = type { %"struct.std::_Tuple_impl" }
%"struct.std::_Tuple_impl" = type { %"struct.std::_Head_base.1" }
%"struct.std::_Head_base.1" = type { ptr }
%class.cmTargetInternals = type { i32, ptr, %"struct.cmPolicies::PolicyMap", ptr, %"class.std::__cxx11::basic_string", %"class.std::__cxx11::basic_string", %"class.std::__cxx11::basic_string", %class.cmPropertyMap, i8, i8, i8, i8, i8, i8, i8, i8, i32, %"class.std::set.182", %"class.std::set", %"class.std::vector.188", %"class.std::vector.188", %"class.std::vector.188", %"class.std::vector.193", %"class.std::set", %"class.std::vector.198", %"class.std::map.203", %"class.std::map.208", %"class.std::vector.214", %"class.std::map.219", %class.cmListFileBacktrace, %class.cmFindPackageStack, %"struct.(anonymous namespace)::UsageRequirementProperty", %"struct.(anonymous namespace)::UsageRequirementProperty", %"struct.(anonymous namespace)::UsageRequirementProperty", %"struct.(anonymous namespace)::UsageRequirementProperty", %"struct.(anonymous namespace)::UsageRequirementProperty", %"struct.(anonymous namespace)::UsageRequirementProperty", %"struct.(anonymous namespace)::UsageRequirementProperty", %"struct.(anonymous namespace)::UsageRequirementProperty", %"struct.(anonymous namespace)::UsageRequirementProperty", %"struct.(anonymous namespace)::UsageRequirementProperty", %"struct.(anonymous namespace)::UsageRequirementProperty", %"struct.(anonymous namespace)::UsageRequirementProperty", %"struct.(anonymous namespace)::UsageRequirementProperty", %"struct.(anonymous namespace)::UsageRequirementProperty", %"struct.(anonymous namespace)::UsageRequirementProperty", %"struct.(anonymous namespace)::UsageRequirementProperty", %"struct.(anonymous namespace)::UsageRequirementProperty", %"struct.(anonymous namespace)::FileSetType", %"struct.(anonymous namespace)::FileSetType" }
%"struct.cmPolicies::PolicyMap" = type { %"class.std::bitset.180" }
%"class.std::bitset.180" = type { %"struct.std::_Base_bitset.181" }
%"struct.std::_Base_bitset.181" = type { [9 x i64] }
%class.cmPropertyMap = type { %"class.std::unordered_map.153" }
%"class.std::unordered_map.153" = type { %"class.std::_Hashtable.154" }
%"class.std::_Hashtable.154" = type { ptr, i64, %"struct.std::__detail::_Hash_node_base", i64, %"struct.std::__detail::_Prime_rehash_policy", ptr }
%"class.std::set.182" = type { %"class.std::_Rb_tree.183" }
%"class.std::_Rb_tree.183" = type { %"struct.std::_Rb_tree<BT<std::pair<std::__cxx11::basic_string<char>, bool>>, BT<std::pair<std::__cxx11::basic_string<char>, bool>>, std::_Identity<BT<std::pair<std::__cxx11::basic_string<char>, bool>>>, std::less<BT<std::pair<std::__cxx11::basic_string<char>, bool>>>>::_Rb_tree_impl" }
%"struct.std::_Rb_tree<BT<std::pair<std::__cxx11::basic_string<char>, bool>>, BT<std::pair<std::__cxx11::basic_string<char>, bool>>, std::_Identity<BT<std::pair<std::__cxx11::basic_string<char>, bool>>>, std::less<BT<std::pair<std::__cxx11::basic_string<char>, bool>>>>::_Rb_tree_impl" = type { [8 x i8], %"struct.std::_Rb_tree_header" }
%"struct.std::_Rb_tree_header" = type { %"struct.std::_Rb_tree_node_base", i64 }
%"struct.std::_Rb_tree_node_base" = type { i32, ptr, ptr, ptr }
%"class.std::vector.188" = type { %"struct.std::_Vector_base.189" }
%"struct.std::_Vector_base.189" = type { %"struct.std::_Vector_base<cmCustomCommand, std::allocator<cmCustomCommand>>::_Vector_impl" }
%"struct.std::_Vector_base<cmCustomCommand, std::allocator<cmCustomCommand>>::_Vector_impl" = type { %"struct.std::_Vector_base<cmCustomCommand, std::allocator<cmCustomCommand>>::_Vector_impl_data" }
%"struct.std::_Vector_base<cmCustomCommand, std::allocator<cmCustomCommand>>::_Vector_impl_data" = type { ptr, ptr, ptr }
%"class.std::vector.193" = type { %"struct.std::_Vector_base.194" }
%"struct.std::_Vector_base.194" = type { %"struct.std::_Vector_base<cmInstallTargetGenerator *, std::allocator<cmInstallTargetGenerator *>>::_Vector_impl" }
%"struct.std::_Vector_base<cmInstallTargetGenerator *, std::allocator<cmInstallTargetGenerator *>>::_Vector_impl" = type { %"struct.std::_Vector_base<cmInstallTargetGenerator *, std::allocator<cmInstallTargetGenerator *>>::_Vector_impl_data" }
%"struct.std::_Vector_base<cmInstallTargetGenerator *, std::allocator<cmInstallTargetGenerator *>>::_Vector_impl_data" = type { ptr, ptr, ptr }
%"class.std::set" = type { %"class.std::_Rb_tree.61" }
%"class.std::_Rb_tree.61" = type { %"struct.std::_Rb_tree<std::__cxx11::basic_string<char>, std::__cxx11::basic_string<char>, std::_Identity<std::__cxx11::basic_string<char>>, std::less<std::__cxx11::basic_string<char>>>::_Rb_tree_impl" }
%"struct.std::_Rb_tree<std::__cxx11::basic_string<char>, std::__cxx11::basic_string<char>, std::_Identity<std::__cxx11::basic_string<char>>, std::less<std::__cxx11::basic_string<char>>>::_Rb_tree_impl" = type { [8 x i8], %"struct.std::_Rb_tree_header" }
%"class.std::vector.198" = type { %"struct.std::_Vector_base.199" }
%"struct.std::_Vector_base.199" = type { %"struct.std::_Vector_base<std::pair<std::__cxx11::basic_string<char>, cmTargetLinkLibraryType>, std::allocator<std::pair<std::__cxx11::basic_string<char>, cmTargetLinkLibraryType>>>::_Vector_impl" }
%"struct.std::_Vector_base<std::pair<std::__cxx11::basic_string<char>, cmTargetLinkLibraryType>, std::allocator<std::pair<std::__cxx11::basic_string<char>, cmTargetLinkLibraryType>>>::_Vector_impl" = type { %"struct.std::_Vector_base<std::pair<std::__cxx11::basic_string<char>, cmTargetLinkLibraryType>, std::allocator<std::pair<std::__cxx11::basic_string<char>, cmTargetLinkLibraryType>>>::_Vector_impl_data" }
%"struct.std::_Vector_base<std::pair<std::__cxx11::basic_string<char>, cmTargetLinkLibraryType>, std::allocator<std::pair<std::__cxx11::basic_string<char>, cmTargetLinkLibraryType>>>::_Vector_impl_data" = type { ptr, ptr, ptr }
%"class.std::map.203" = type { %"class.std::_Rb_tree.204" }
%"class.std::_Rb_tree.204" = type { %"struct.std::_Rb_tree<std::__cxx11::basic_string<char>, std::pair<const std::__cxx11::basic_string<char>, BTs<std::__cxx11::basic_string<char>>>, std::_Select1st<std::pair<const std::__cxx11::basic_string<char>, BTs<std::__cxx11::basic_string<char>>>>, std::less<std::__cxx11::basic_string<char>>>::_Rb_tree_impl" }
%"struct.std::_Rb_tree<std::__cxx11::basic_string<char>, std::pair<const std::__cxx11::basic_string<char>, BTs<std::__cxx11::basic_string<char>>>, std::_Select1st<std::pair<const std::__cxx11::basic_string<char>, BTs<std::__cxx11::basic_string<char>>>>, std::less<std::__cxx11::basic_string<char>>>::_Rb_tree_impl" = type { [8 x i8], %"struct.std::_Rb_tree_header" }
%"class.std::map.208" = type { %"class.std::_Rb_tree.209" }
%"class.std::_Rb_tree.209" = type { %"struct.std::_Rb_tree<const cmTargetExport *, std::pair<const cmTargetExport *const, std::vector<std::__cxx11::basic_string<char>>>, std::_Select1st<std::pair<const cmTargetExport *const, std::vector<std::__cxx11::basic_string<char>>>>, std::less<const cmTargetExport *>>::_Rb_tree_impl" }
%"struct.std::_Rb_tree<const cmTargetExport *, std::pair<const cmTargetExport *const, std::vector<std::__cxx11::basic_string<char>>>, std::_Select1st<std::pair<const cmTargetExport *const, std::vector<std::__cxx11::basic_string<char>>>>, std::less<const cmTargetExport *>>::_Rb_tree_impl" = type { [8 x i8], %"struct.std::_Rb_tree_header" }
%"class.std::vector.214" = type { %"struct.std::_Vector_base.215" }
%"struct.std::_Vector_base.215" = type { %"struct.std::_Vector_base<std::pair<cmTarget::TLLSignature, cmListFileContext>, std::allocator<std::pair<cmTarget::TLLSignature, cmListFileContext>>>::_Vector_impl" }
%"struct.std::_Vector_base<std::pair<cmTarget::TLLSignature, cmListFileContext>, std::allocator<std::pair<cmTarget::TLLSignature, cmListFileContext>>>::_Vector_impl" = type { %"struct.std::_Vector_base<std::pair<cmTarget::TLLSignature, cmListFileContext>, std::allocator<std::pair<cmTarget::TLLSignature, cmListFileContext>>>::_Vector_impl_data" }
%"struct.std::_Vector_base<std::pair<cmTarget::TLLSignature, cmListFileContext>, std::allocator<std::pair<cmTarget::TLLSignature, cmListFileContext>>>::_Vector_impl_data" = type { ptr, ptr, ptr }
%"class.std::map.219" = type { %"class.std::_Rb_tree.220" }
%"class.std::_Rb_tree.220" = type { %"struct.std::_Rb_tree<std::__cxx11::basic_string<char>, std::pair<const std::__cxx11::basic_string<char>, cmFileSet>, std::_Select1st<std::pair<const std::__cxx11::basic_string<char>, cmFileSet>>, std::less<std::__cxx11::basic_string<char>>>::_Rb_tree_impl" }
%"struct.std::_Rb_tree<std::__cxx11::basic_string<char>, std::pair<const std::__cxx11::basic_string<char>, cmFileSet>, std::_Select1st<std::pair<const std::__cxx11::basic_string<char>, cmFileSet>>, std::less<std::__cxx11::basic_string<char>>>::_Rb_tree_impl" = type { [8 x i8], %"struct.std::_Rb_tree_header" }
%class.cmListFileBacktrace = type { %class.cmConstStack }
%class.cmConstStack = type { %"class.std::shared_ptr" }
%"class.std::shared_ptr" = type { %"class.std::__shared_ptr" }
%"class.std::__shared_ptr" = type { ptr, %"class.std::__shared_count" }
%"class.std::__shared_count" = type { ptr }
%class.cmFindPackageStack = type { %class.cmConstStack.149 }
%class.cmConstStack.149 = type { %"class.std::shared_ptr.150" }
%"class.std::shared_ptr.150" = type { %"class.std::__shared_ptr.151" }
%"class.std::__shared_ptr.151" = type { ptr, %"class.std::__shared_count" }
%"struct.(anonymous namespace)::UsageRequirementProperty" = type { %"class.cm::static_string_view", i32, %"class.std::vector.175" }
%"class.std::vector.175" = type { %"struct.std::_Vector_base.176" }
%"struct.std::_Vector_base.176" = type { %"struct.std::_Vector_base<BT<std::__cxx11::basic_string<char>>, std::allocator<BT<std::__cxx11::basic_string<char>>>>::_Vector_impl" }
%"struct.std::_Vector_base<BT<std::__cxx11::basic_string<char>>, std::allocator<BT<std::__cxx11::basic_string<char>>>>::_Vector_impl" = type { %"struct.std::_Vector_base<BT<std::__cxx11::basic_string<char>>, std::allocator<BT<std::__cxx11::basic_string<char>>>>::_Vector_impl_data" }
%"struct.std::_Vector_base<BT<std::__cxx11::basic_string<char>>, std::allocator<BT<std::__cxx11::basic_string<char>>>>::_Vector_impl_data" = type { ptr, ptr, ptr }
%"struct.(anonymous namespace)::FileSetType" = type { %"class.cm::static_string_view", %"class.cm::static_string_view", %"class.cm::static_string_view", %"class.cm::static_string_view", %"class.cm::static_string_view", %"class.cm::static_string_view", %"class.cm::static_string_view", %"class.cm::static_string_view", %"struct.(anonymous namespace)::FileSetEntries", %"struct.(anonymous namespace)::FileSetEntries" }
%"struct.(anonymous namespace)::FileSetEntries" = type { %"class.cm::static_string_view", %"class.std::vector.175" }
%"class.__gnu_cxx::__normal_iterator.839" = type { ptr }
%class.cmCustomCommand = type <{ %"class.std::vector", %"class.std::vector", %"class.std::vector", %class.cmCustomCommandLines, %class.cmListFileBacktrace, %class.cmImplicitDependsList, %"class.std::__cxx11::basic_string", %"class.std::__cxx11::basic_string", %"class.std::__cxx11::basic_string", %"class.std::__cxx11::basic_string", %"class.std::__cxx11::basic_string", %"class.std::__cxx11::basic_string", i8, i8, i8, i8, i8, i8, i8, i8, i8, i8, [2 x i8], i32, i32, [4 x i8] }>
%class.cmCustomCommandLines = type { %"class.std::vector.502" }
%"class.std::vector.502" = type { %"struct.std::_Vector_base.503" }
%"struct.std::_Vector_base.503" = type { %"struct.std::_Vector_base<cmCustomCommandLine, std::allocator<cmCustomCommandLine>>::_Vector_impl" }
%"struct.std::_Vector_base<cmCustomCommandLine, std::allocator<cmCustomCommandLine>>::_Vector_impl" = type { %"struct.std::_Vector_base<cmCustomCommandLine, std::allocator<cmCustomCommandLine>>::_Vector_impl_data" }
%"struct.std::_Vector_base<cmCustomCommandLine, std::allocator<cmCustomCommandLine>>::_Vector_impl_data" = type { ptr, ptr, ptr }
%class.cmImplicitDependsList = type { %"class.std::vector.507" }
%"class.std::vector.507" = type { %"struct.std::_Vector_base.508" }
%"struct.std::_Vector_base.508" = type { %"struct.std::_Vector_base<std::pair<std::__cxx11::basic_string<char>, std::__cxx11::basic_string<char>>, std::allocator<std::pair<std::__cxx11::basic_string<char>, std::__cxx11::basic_string<char>>>>::_Vector_impl" }
%"struct.std::_Vector_base<std::pair<std::__cxx11::basic_string<char>, std::__cxx11::basic_string<char>>, std::allocator<std::pair<std::__cxx11::basic_string<char>, std::__cxx11::basic_string<char>>>>::_Vector_impl" = type { %"struct.std::_Vector_base<std::pair<std::__cxx11::basic_string<char>, std::__cxx11::basic_string<char>>, std::allocator<std::pair<std::__cxx11::basic_string<char>, std::__cxx11::basic_string<char>>>>::_Vector_impl_data" }
%"struct.std::_Vector_base<std::pair<std::__cxx11::basic_string<char>, std::__cxx11::basic_string<char>>, std::allocator<std::pair<std::__cxx11::basic_string<char>, std::__cxx11::basic_string<char>>>>::_Vector_impl_data" = type { ptr, ptr, ptr }

; Function Attrs: mustprogress nounwind uwtable
define linkonce_odr dso_local noundef nonnull align 8 dereferenceable(8) ptr @_ZNSt10_Head_baseILm0EP17cmTargetInternalsLb0EE7_M_headERKS2_(ptr noundef nonnull align 8 dereferenceable(8) %0) #6 comdat align 2 {
  %2 = alloca ptr, align 8
  store ptr %0, ptr %2, align 8, !tbaa !731
  %3 = load ptr, ptr %2, align 8, !tbaa !731
  %4 = getelementptr inbounds nuw %"struct.std::_Head_base.1", ptr %3, i32 0, i32 0
  ret ptr %4
}

; Function Attrs: mustprogress nounwind uwtable
define linkonce_odr dso_local noundef nonnull align 8 dereferenceable(8) ptr @_ZNSt11_Tuple_implILm0EJP17cmTargetInternalsSt14default_deleteIS0_EEE7_M_headERKS4_(ptr noundef nonnull align 8 dereferenceable(8) %0) #6 comdat align 2 {
  %2 = alloca ptr, align 8
  store ptr %0, ptr %2, align 8, !tbaa !726
  %3 = load ptr, ptr %2, align 8, !tbaa !726
  %4 = call noundef nonnull align 8 dereferenceable(8) ptr @_ZNSt10_Head_baseILm0EP17cmTargetInternalsLb0EE7_M_headERKS2_(ptr noundef nonnull align 8 dereferenceable(8) %3) #3
  ret ptr %4
}

; Function Attrs: mustprogress nounwind uwtable
define linkonce_odr dso_local noundef nonnull align 8 dereferenceable(8) ptr @_ZSt12__get_helperILm0EP17cmTargetInternalsJSt14default_deleteIS0_EEERKT0_RKSt11_Tuple_implIXT_EJS4_DpT1_EE(ptr noundef nonnull align 8 dereferenceable(8) %0) #6 comdat {
  %2 = alloca ptr, align 8
  store ptr %0, ptr %2, align 8, !tbaa !726
  %3 = load ptr, ptr %2, align 8, !tbaa !726
  %4 = call noundef nonnull align 8 dereferenceable(8) ptr @_ZNSt11_Tuple_implILm0EJP17cmTargetInternalsSt14default_deleteIS0_EEE7_M_headERKS4_(ptr noundef nonnull align 8 dereferenceable(8) %3) #3
  ret ptr %4
}

; Function Attrs: mustprogress nounwind uwtable
define linkonce_odr dso_local noundef nonnull align 8 dereferenceable(8) ptr @_ZSt3getILm0EJP17cmTargetInternalsSt14default_deleteIS0_EEERKNSt13tuple_elementIXT_ESt5tupleIJDpT0_EEE4typeERKS8_(ptr noundef nonnull align 8 dereferenceable(8) %0) #6 comdat {
  %2 = alloca ptr, align 8
  store ptr %0, ptr %2, align 8, !tbaa !724
  %3 = load ptr, ptr %2, align 8, !tbaa !724
  %4 = call noundef nonnull align 8 dereferenceable(8) ptr @_ZSt12__get_helperILm0EP17cmTargetInternalsJSt14default_deleteIS0_EEERKT0_RKSt11_Tuple_implIXT_EJS4_DpT1_EE(ptr noundef nonnull align 8 dereferenceable(8) %3) #3
  ret ptr %4
}

; Function Attrs: mustprogress nounwind uwtable
define linkonce_odr dso_local void @_ZN9__gnu_cxx17__normal_iteratorIP15cmCustomCommandSt6vectorIS1_SaIS1_EEEC2ERKS2_(ptr noundef nonnull align 8 dereferenceable(8) %0, ptr noundef nonnull align 8 dereferenceable(8) %1) unnamed_addr #6 comdat align 2 {
  %3 = alloca ptr, align 8
  %4 = alloca ptr, align 8
  store ptr %0, ptr %3, align 8, !tbaa !1252
  store ptr %1, ptr %4, align 8, !tbaa !1254
  %5 = load ptr, ptr %3, align 8
  %6 = getelementptr inbounds nuw %"class.__gnu_cxx::__normal_iterator.839", ptr %5, i32 0, i32 0
  %7 = load ptr, ptr %4, align 8, !tbaa !1254
  %8 = load ptr, ptr %7, align 8, !tbaa !308
  store ptr %8, ptr %6, align 8, !tbaa !1256
  ret void
}

; Function Attrs: mustprogress uwtable
define linkonce_odr dso_local void @_ZNSt15__new_allocatorI15cmCustomCommandE9constructIS0_JRKS0_EEEvPT_DpOT0_(ptr noundef nonnull align 1 dereferenceable(1) %0, ptr noundef %1, ptr noundef nonnull align 8 dereferenceable(348) %2) #5 comdat align 2 {
  %4 = alloca ptr, align 8
  %5 = alloca ptr, align 8
  %6 = alloca ptr, align 8
  store ptr %0, ptr %4, align 8, !tbaa !527
  store ptr %1, ptr %5, align 8, !tbaa !308
  store ptr %2, ptr %6, align 8, !tbaa !308
  %7 = load ptr, ptr %5, align 8, !tbaa !308
  %8 = load ptr, ptr %6, align 8, !tbaa !308
  call void @_ZN15cmCustomCommandC2ERKS_(ptr noundef nonnull align 8 dereferenceable(348) %7, ptr noundef nonnull align 8 dereferenceable(348) %8)
  ret void
}

; Function Attrs: mustprogress nounwind uwtable
define linkonce_odr dso_local noundef ptr @_ZNKSt15__uniq_ptr_implI17cmTargetInternalsSt14default_deleteIS0_EE6_M_ptrEv(ptr noundef nonnull align 8 dereferenceable(8) %0) #6 comdat align 2 {
  %2 = alloca ptr, align 8
  store ptr %0, ptr %2, align 8, !tbaa !722
  %3 = load ptr, ptr %2, align 8
  %4 = getelementptr inbounds nuw %"class.std::__uniq_ptr_impl", ptr %3, i32 0, i32 0
  %5 = call noundef nonnull align 8 dereferenceable(8) ptr @_ZSt3getILm0EJP17cmTargetInternalsSt14default_deleteIS0_EEERKNSt13tuple_elementIXT_ESt5tupleIJDpT0_EEE4typeERKS8_(ptr noundef nonnull align 8 dereferenceable(8) %4) #3
  %6 = load ptr, ptr %5, align 8, !tbaa !163
  ret ptr %6
}

; Function Attrs: mustprogress nounwind uwtable
define linkonce_odr dso_local ptr @_ZNSt6vectorI15cmCustomCommandSaIS0_EE3endEv(ptr noundef nonnull align 8 dereferenceable(24) %0) #6 comdat align 2 {
  %2 = alloca %"class.__gnu_cxx::__normal_iterator.839", align 8
  %3 = alloca ptr, align 8
  store ptr %0, ptr %3, align 8, !tbaa !173
  %4 = load ptr, ptr %3, align 8
  %5 = getelementptr inbounds nuw %"struct.std::_Vector_base.189", ptr %4, i32 0, i32 0
  %6 = getelementptr inbounds nuw %"struct.std::_Vector_base<cmCustomCommand, std::allocator<cmCustomCommand>>::_Vector_impl_data", ptr %5, i32 0, i32 1
  call void @_ZN9__gnu_cxx17__normal_iteratorIP15cmCustomCommandSt6vectorIS1_SaIS1_EEEC2ERKS2_(ptr noundef nonnull align 8 dereferenceable(8) %2, ptr noundef nonnull align 8 dereferenceable(8) %6) #3
  %7 = getelementptr inbounds nuw %"class.__gnu_cxx::__normal_iterator.839", ptr %2, i32 0, i32 0
  %8 = load ptr, ptr %7, align 8
  ret ptr %8
}

; Function Attrs: mustprogress uwtable
define linkonce_odr dso_local void @_ZNSt16allocator_traitsISaI15cmCustomCommandEE9constructIS0_JRKS0_EEEvRS1_PT_DpOT0_(ptr noundef nonnull align 1 dereferenceable(1) %0, ptr noundef %1, ptr noundef nonnull align 8 dereferenceable(348) %2) #5 comdat align 2 {
  %4 = alloca ptr, align 8
  %5 = alloca ptr, align 8
  %6 = alloca ptr, align 8
  store ptr %0, ptr %4, align 8, !tbaa !523
  store ptr %1, ptr %5, align 8, !tbaa !308
  store ptr %2, ptr %6, align 8, !tbaa !308
  %7 = load ptr, ptr %4, align 8, !tbaa !523
  %8 = load ptr, ptr %5, align 8, !tbaa !308
  %9 = load ptr, ptr %6, align 8, !tbaa !308
  call void @_ZNSt15__new_allocatorI15cmCustomCommandE9constructIS0_JRKS0_EEEvPT_DpOT0_(ptr noundef nonnull align 1 dereferenceable(1) %7, ptr noundef %8, ptr noundef nonnull align 8 dereferenceable(348) %9)
  ret void
}

; Function Attrs: mustprogress nounwind uwtable
define linkonce_odr dso_local noundef ptr @_ZNKSt10unique_ptrI17cmTargetInternalsSt14default_deleteIS0_EE3getEv(ptr noundef nonnull align 8 dereferenceable(8) %0) #6 comdat align 2 {
  %2 = alloca ptr, align 8
  store ptr %0, ptr %2, align 8, !tbaa !240
  %3 = load ptr, ptr %2, align 8
  %4 = getelementptr inbounds nuw %"class.std::unique_ptr", ptr %3, i32 0, i32 0
  %5 = call noundef ptr @_ZNKSt15__uniq_ptr_implI17cmTargetInternalsSt14default_deleteIS0_EE6_M_ptrEv(ptr noundef nonnull align 8 dereferenceable(8) %4) #3
  ret ptr %5
}

; Function Attrs: mustprogress uwtable
define linkonce_odr dso_local void @_ZNSt6vectorI15cmCustomCommandSaIS0_EE9push_backERKS0_(ptr noundef nonnull align 8 dereferenceable(24) %0, ptr noundef nonnull align 8 dereferenceable(348) %1) #5 comdat align 2 {
  %3 = alloca ptr, align 8
  %4 = alloca ptr, align 8
  %5 = alloca %"class.__gnu_cxx::__normal_iterator.839", align 8
  store ptr %0, ptr %3, align 8, !tbaa !173
  store ptr %1, ptr %4, align 8, !tbaa !308
  %6 = load ptr, ptr %3, align 8
  %7 = getelementptr inbounds nuw %"struct.std::_Vector_base.189", ptr %6, i32 0, i32 0
  %8 = getelementptr inbounds nuw %"struct.std::_Vector_base<cmCustomCommand, std::allocator<cmCustomCommand>>::_Vector_impl_data", ptr %7, i32 0, i32 1
  %9 = load ptr, ptr %8, align 8, !tbaa !209
  %10 = getelementptr inbounds nuw %"struct.std::_Vector_base.189", ptr %6, i32 0, i32 0
  %11 = getelementptr inbounds nuw %"struct.std::_Vector_base<cmCustomCommand, std::allocator<cmCustomCommand>>::_Vector_impl_data", ptr %10, i32 0, i32 2
  %12 = load ptr, ptr %11, align 8, !tbaa !309
  %13 = icmp ne ptr %9, %12
  br i1 %13, label %14, label %24

14:                                               ; preds = %2
  %15 = getelementptr inbounds nuw %"struct.std::_Vector_base.189", ptr %6, i32 0, i32 0
  %16 = getelementptr inbounds nuw %"struct.std::_Vector_base.189", ptr %6, i32 0, i32 0
  %17 = getelementptr inbounds nuw %"struct.std::_Vector_base<cmCustomCommand, std::allocator<cmCustomCommand>>::_Vector_impl_data", ptr %16, i32 0, i32 1
  %18 = load ptr, ptr %17, align 8, !tbaa !209
  %19 = load ptr, ptr %4, align 8, !tbaa !308
  call void @_ZNSt16allocator_traitsISaI15cmCustomCommandEE9constructIS0_JRKS0_EEEvRS1_PT_DpOT0_(ptr noundef nonnull align 1 dereferenceable(1) %15, ptr noundef %18, ptr noundef nonnull align 8 dereferenceable(348) %19)
  %20 = getelementptr inbounds nuw %"struct.std::_Vector_base.189", ptr %6, i32 0, i32 0
  %21 = getelementptr inbounds nuw %"struct.std::_Vector_base<cmCustomCommand, std::allocator<cmCustomCommand>>::_Vector_impl_data", ptr %20, i32 0, i32 1
  %22 = load ptr, ptr %21, align 8, !tbaa !209
  %23 = getelementptr inbounds nuw %class.cmCustomCommand, ptr %22, i32 1
  store ptr %23, ptr %21, align 8, !tbaa !209
  br label %30

24:                                               ; preds = %2
  %25 = call ptr @_ZNSt6vectorI15cmCustomCommandSaIS0_EE3endEv(ptr noundef nonnull align 8 dereferenceable(24) %6) #3
  %26 = getelementptr inbounds nuw %"class.__gnu_cxx::__normal_iterator.839", ptr %5, i32 0, i32 0
  store ptr %25, ptr %26, align 8
  %27 = load ptr, ptr %4, align 8, !tbaa !308
  %28 = getelementptr inbounds nuw %"class.__gnu_cxx::__normal_iterator.839", ptr %5, i32 0, i32 0
  %29 = load ptr, ptr %28, align 8
  call void @_ZNSt6vectorI15cmCustomCommandSaIS0_EE17_M_realloc_insertIJRKS0_EEEvN9__gnu_cxx17__normal_iteratorIPS0_S2_EEDpOT_(ptr noundef nonnull align 8 dereferenceable(24) %6, ptr %29, ptr noundef nonnull align 8 dereferenceable(348) %27)
  br label %30

30:                                               ; preds = %24, %14
  ret void
}

; Function Attrs: mustprogress nounwind uwtable
define linkonce_odr dso_local noundef ptr @_ZNKSt10unique_ptrI17cmTargetInternalsSt14default_deleteIS0_EEptEv(ptr noundef nonnull align 8 dereferenceable(8) %0) #6 comdat align 2 {
  %2 = alloca ptr, align 8
  store ptr %0, ptr %2, align 8, !tbaa !240
  %3 = load ptr, ptr %2, align 8
  %4 = call noundef ptr @_ZNKSt10unique_ptrI17cmTargetInternalsSt14default_deleteIS0_EE3getEv(ptr noundef nonnull align 8 dereferenceable(8) %3) #3
  ret ptr %4
}

; Function Attrs: mustprogress uwtable
define dso_local void @_ZN8cmTarget19AddPostBuildCommandERK15cmCustomCommand(ptr noundef nonnull align 8 dereferenceable(8) %0, ptr noundef nonnull align 8 dereferenceable(348) %1) #5 align 2 {
  %3 = alloca ptr, align 8
  %4 = alloca ptr, align 8
  store ptr %0, ptr %3, align 8, !tbaa !20
  store ptr %1, ptr %4, align 8, !tbaa !308
  %5 = load ptr, ptr %3, align 8
  %6 = getelementptr inbounds nuw %class.cmTarget, ptr %5, i32 0, i32 0
  %7 = call noundef ptr @_ZNKSt10unique_ptrI17cmTargetInternalsSt14default_deleteIS0_EEptEv(ptr noundef nonnull align 8 dereferenceable(8) %6) #3
  %8 = getelementptr inbounds nuw %class.cmTargetInternals, ptr %7, i32 0, i32 21
  %9 = load ptr, ptr %4, align 8, !tbaa !308
  call void @_ZNSt6vectorI15cmCustomCommandSaIS0_EE9push_backERKS0_(ptr noundef nonnull align 8 dereferenceable(24) %8, ptr noundef nonnull align 8 dereferenceable(348) %9)
  ret void
}