; Function Attrs: mustprogress uwtable
define dso_local void @_ZN8cmTarget19AddPostBuildCommandERK15cmCustomCommand(ptr noundef nonnull readonly align 8 captures(none) dereferenceable(8) %0, ptr noundef nonnull align 8 dereferenceable(348) %1) local_unnamed_addr #5 align 2 {
  %3 = load ptr, ptr %0, align 8, !tbaa !22
  %4 = getelementptr inbounds nuw i8, ptr %3, i64 416
  %5 = load ptr, ptr %4, align 8, !tbaa !212
  %6 = getelementptr inbounds nuw i8, ptr %3, i64 424
  %7 = load ptr, ptr %6, align 8, !tbaa !214
  %.not.i = icmp eq ptr %5, %7
  br i1 %.not.i, label %11, label %8

8:                                                ; preds = %2
  tail call void @_ZN15cmCustomCommandC2ERKS_(ptr noundef nonnull align 8 dereferenceable(348) %5, ptr noundef nonnull align 8 dereferenceable(348) %1)
  %9 = load ptr, ptr %4, align 8, !tbaa !212
  %10 = getelementptr inbounds nuw i8, ptr %9, i64 352
  store ptr %10, ptr %4, align 8, !tbaa !212
  br label %_ZNSt6vectorI15cmCustomCommandSaIS0_EE9push_backERKS0_.exit

11:                                               ; preds = %2
  %12 = getelementptr inbounds nuw i8, ptr %3, i64 408
  tail call void @_ZNSt6vectorI15cmCustomCommandSaIS0_EE17_M_realloc_insertIJRKS0_EEEvN9__gnu_cxx17__normal_iteratorIPS0_S2_EEDpOT_(ptr noundef nonnull align 8 dereferenceable(24) %12, ptr %5, ptr noundef nonnull align 8 dereferenceable(348) %1)
  br label %_ZNSt6vectorI15cmCustomCommandSaIS0_EE9push_backERKS0_.exit

_ZNSt6vectorI15cmCustomCommandSaIS0_EE9push_backERKS0_.exit: ; preds = %8, %11
  ret void
}